target datalayout = "e-m:e-p270:32:32-p271:32:32-p272:64:64-i64:64-i128:128-f80:128-n8:16:32:64-S128"
target triple = "x86_64-pc-linux-gnu"

%"struct.duckdb_libpgquery::PGListCell" = type { %union.anon, ptr }
%union.anon = type { ptr }
%"struct.duckdb_libpgquery::PGList" = type { i32, i32, ptr, ptr }
%"struct.duckdb_libpgquery::PGNode" = type { i32 }

@.str.171 = private unnamed_addr constant [20 x i8] c"improper use of \22*\22\00", align 1

; Function Attrs: inlinehint mustprogress nounwind uwtable
define internal noundef ptr @_ZN17duckdb_libpgqueryL9list_headEPKNS_6PGListE(ptr noundef %0) #5 {
  %2 = alloca ptr, align 8
  store ptr %0, ptr %2, align 8, !tbaa !286
  %3 = load ptr, ptr %2, align 8, !tbaa !286
  %4 = icmp ne ptr %3, null
  br i1 %4, label %5, label %9

5:                                                ; preds = %1
  %6 = load ptr, ptr %2, align 8, !tbaa !286
  %7 = getelementptr inbounds nuw %"struct.duckdb_libpgquery::PGList", ptr %6, i32 0, i32 2
  %8 = load ptr, ptr %7, align 8, !tbaa !533
  br label %10

9:                                                ; preds = %1
  br label %10

10:                                               ; preds = %9, %5
  %11 = phi ptr [ %8, %5 ], [ null, %9 ]
  ret ptr %11
}

; Function Attrs: mustprogress uwtable
define internal noundef ptr @_ZN17duckdb_libpgqueryL17check_indirectionEPNS_6PGListEPv(ptr noundef %0, ptr noundef %1) #0 {
  %3 = alloca ptr, align 8
  %4 = alloca ptr, align 8
  %5 = alloca ptr, align 8
  store ptr %0, ptr %3, align 8, !tbaa !286
  store ptr %1, ptr %4, align 8, !tbaa !3
  call void @llvm.lifetime.start.p0(i64 8, ptr %5) #13
  %6 = load ptr, ptr %3, align 8, !tbaa !286
  %7 = call noundef ptr @_ZN17duckdb_libpgqueryL9list_headEPKNS_6PGListE(ptr noundef %6)
  store ptr %7, ptr %5, align 8, !tbaa !123
  br label %8

8:                                                ; preds = %27, %2
  %9 = load ptr, ptr %5, align 8, !tbaa !123
  %10 = icmp ne ptr %9, null
  br i1 %10, label %11, label %31

11:                                               ; preds = %8
  %12 = load ptr, ptr %5, align 8, !tbaa !123
  %13 = getelementptr inbounds nuw %"struct.duckdb_libpgquery::PGListCell", ptr %12, i32 0, i32 0
  %14 = load ptr, ptr %13, align 8, !tbaa !22
  %15 = getelementptr inbounds nuw %"struct.duckdb_libpgquery::PGNode", ptr %14, i32 0, i32 0
  %16 = load i32, ptr %15, align 4, !tbaa !460
  %17 = icmp eq i32 %16, 357
  br i1 %17, label %18, label %26

18:                                               ; preds = %11
  %19 = load ptr, ptr %5, align 8, !tbaa !123
  %20 = getelementptr inbounds nuw %"struct.duckdb_libpgquery::PGListCell", ptr %19, i32 0, i32 1
  %21 = load ptr, ptr %20, align 8, !tbaa !85
  %22 = icmp ne ptr %21, null
  br i1 %22, label %23, label %25

23:                                               ; preds = %18
  %24 = load ptr, ptr %4, align 8, !tbaa !3
  call void @_ZN17duckdb_libpgquery15scanner_yyerrorEPKcPv(ptr noundef @.str.171, ptr noundef %24)
  br label %25

25:                                               ; preds = %23, %18
  br label %26

26:                                               ; preds = %25, %11
  br label %27

27:                                               ; preds = %26
  %28 = load ptr, ptr %5, align 8, !tbaa !123
  %29 = getelementptr inbounds nuw %"struct.duckdb_libpgquery::PGListCell", ptr %28, i32 0, i32 1
  %30 = load ptr, ptr %29, align 8, !tbaa !85
  store ptr %30, ptr %5, align 8, !tbaa !123
  br label %8, !llvm.loop !737

31:                                               ; preds = %8
  %32 = load ptr, ptr %3, align 8, !tbaa !286
  call void @llvm.lifetime.end.p0(i64 8, ptr %5) #13
  ret ptr %32
}