; Function Attrs: mustprogress uwtable
define internal fastcc noundef ptr @_ZN17duckdb_libpgqueryL17check_indirectionEPNS_6PGListEPv(ptr noundef readonly returned captures(address_is_null, ret: address, provenance) %0, ptr noundef %1) unnamed_addr #0 {
  %.not.i = icmp eq ptr %0, null
  br i1 %.not.i, label %._crit_edge, label %_ZN17duckdb_libpgqueryL9list_headEPKNS_6PGListE.exit

_ZN17duckdb_libpgqueryL9list_headEPKNS_6PGListE.exit: ; preds = %2
  %3 = getelementptr inbounds nuw i8, ptr %0, i64 8
  %4 = load ptr, ptr %3, align 8, !tbaa !72
  %.not8 = icmp eq ptr %4, null
  br i1 %.not8, label %._crit_edge, label %.lr.ph

.lr.ph:                                           ; preds = %_ZN17duckdb_libpgqueryL9list_headEPKNS_6PGListE.exit, %12
  %.09 = phi ptr [ %14, %12 ], [ %4, %_ZN17duckdb_libpgqueryL9list_headEPKNS_6PGListE.exit ]
  %5 = load ptr, ptr %.09, align 8, !tbaa !9
  %6 = load i32, ptr %5, align 4, !tbaa !386
  %7 = icmp eq i32 %6, 357
  br i1 %7, label %8, label %12

8:                                                ; preds = %.lr.ph
  %9 = getelementptr inbounds nuw i8, ptr %.09, i64 8
  %10 = load ptr, ptr %9, align 8, !tbaa !74
  %.not7 = icmp eq ptr %10, null
  br i1 %.not7, label %12, label %11

11:                                               ; preds = %8
  tail call void @_ZN17duckdb_libpgquery15scanner_yyerrorEPKcPv(ptr noundef nonnull @.str.171, ptr noundef %1)
  br label %12

12:                                               ; preds = %.lr.ph, %11, %8
  %13 = getelementptr inbounds nuw i8, ptr %.09, i64 8
  %14 = load ptr, ptr %13, align 8, !tbaa !74
  %.not = icmp eq ptr %14, null
  br i1 %.not, label %._crit_edge, label %.lr.ph, !llvm.loop !588

._crit_edge:                                      ; preds = %12, %2, %_ZN17duckdb_libpgqueryL9list_headEPKNS_6PGListE.exit
  ret ptr %0
}